target datalayout = "e-m:e-p270:32:32-p271:32:32-p272:64:64-i64:64-i128:128-f80:128-n8:16:32:64-S128"
target triple = "x86_64-unknown-linux-gnu"

%"class.QuantLib::BiCGstab" = type { %"class.std::function", %"class.std::function", i64, double }
%"class.std::function" = type { %"class.std::_Function_base", ptr }
%"class.std::_Function_base" = type { %"union.std::_Any_data", ptr }
%"union.std::_Any_data" = type { %"union.std::_Nocopy_types" }
%"union.std::_Nocopy_types" = type { { i64, i64 } }

; Function Attrs: mustprogress nounwind uwtable
define linkonce_odr noundef zeroext i1 @_ZNKSt14_Function_base8_M_emptyEv(ptr noundef nonnull align 8 dereferenceable(24) %this) #0 comdat align 2 {
entry:
  %this.addr = alloca ptr, align 8
  store ptr %this, ptr %this.addr, align 8, !tbaa !3
  %this1 = load ptr, ptr %this.addr, align 8
  %_M_manager = getelementptr inbounds nuw %"class.std::_Function_base", ptr %this1, i32 0, i32 1
  %0 = load ptr, ptr %_M_manager, align 8, !tbaa !19
  %tobool = icmp ne ptr %0, null
  %lnot = xor i1 %tobool, true
  ret i1 %lnot
}

; Function Attrs: mustprogress nounwind uwtable
define linkonce_odr noundef zeroext i1 @_ZNKSt8functionIFN8QuantLib5ArrayERKS1_EEcvbEv(ptr noundef nonnull align 8 dereferenceable(32) %this) #0 comdat align 2 {
entry:
  %this.addr = alloca ptr, align 8
  store ptr %this, ptr %this.addr, align 8, !tbaa !3
  %this1 = load ptr, ptr %this.addr, align 8
  %call = call noundef zeroext i1 @_ZNKSt14_Function_base8_M_emptyEv(ptr noundef nonnull align 8 dereferenceable(24) %this1)
  %lnot = xor i1 %call, true
  ret i1 %lnot
}

; Function Attrs: mustprogress nounwind uwtable
define linkonce_odr void @_ZNSt14_Function_baseC2Ev(ptr noundef nonnull align 8 dereferenceable(24) %this) unnamed_addr #0 comdat align 2 {
entry:
  %this.addr = alloca ptr, align 8
  store ptr %this, ptr %this.addr, align 8, !tbaa !3
  %this1 = load ptr, ptr %this.addr, align 8
  %_M_functor = getelementptr inbounds nuw %"class.std::_Function_base", ptr %this1, i32 0, i32 0
  store ptr null, ptr %_M_functor, align 8, !tbaa !18
  %_M_manager = getelementptr inbounds nuw %"class.std::_Function_base", ptr %this1, i32 0, i32 1
  store ptr null, ptr %_M_manager, align 8, !tbaa !19
  ret void
}

; Function Attrs: mustprogress nounwind uwtable
define linkonce_odr void @_ZNSt8functionIFN8QuantLib5ArrayERKS1_EEC2EOS5_(ptr noundef nonnull align 8 dereferenceable(32) %this, ptr noundef nonnull align 8 dereferenceable(32) %__x) unnamed_addr #0 comdat align 2 {
entry:
  %this.addr = alloca ptr, align 8
  %__x.addr = alloca ptr, align 8
  store ptr %this, ptr %this.addr, align 8, !tbaa !3
  store ptr %__x, ptr %__x.addr, align 8, !tbaa !3
  %this1 = load ptr, ptr %this.addr, align 8
  %0 = getelementptr inbounds i8, ptr %this1, i64 0
  call void @llvm.memset.p0.i64(ptr align 8 %0, i8 0, i64 24, i1 false)
  call void @_ZNSt14_Function_baseC2Ev(ptr noundef nonnull align 8 dereferenceable(24) %this1) #15
  %_M_invoker = getelementptr inbounds nuw %"class.std::function", ptr %this1, i32 0, i32 1
  %1 = load ptr, ptr %__x.addr, align 8, !tbaa !3
  %_M_invoker2 = getelementptr inbounds nuw %"class.std::function", ptr %1, i32 0, i32 1
  %2 = load ptr, ptr %_M_invoker2, align 8, !tbaa !16
  store ptr %2, ptr %_M_invoker, align 8, !tbaa !16
  %3 = load ptr, ptr %__x.addr, align 8, !tbaa !3
  %call = call noundef zeroext i1 @_ZNKSt8functionIFN8QuantLib5ArrayERKS1_EEcvbEv(ptr noundef nonnull align 8 dereferenceable(32) %3) #15
  br i1 %call, label %if.then, label %if.end

if.then:                                          ; preds = %entry
  %4 = load ptr, ptr %__x.addr, align 8, !tbaa !3
  %_M_functor = getelementptr inbounds nuw %"class.std::_Function_base", ptr %4, i32 0, i32 0
  %_M_functor3 = getelementptr inbounds nuw %"class.std::_Function_base", ptr %this1, i32 0, i32 0
  call void @llvm.memcpy.p0.p0.i64(ptr align 8 %_M_functor3, ptr align 8 %_M_functor, i64 16, i1 false), !tbaa.struct !17
  %5 = load ptr, ptr %__x.addr, align 8, !tbaa !3
  %_M_manager = getelementptr inbounds nuw %"class.std::_Function_base", ptr %5, i32 0, i32 1
  %6 = load ptr, ptr %_M_manager, align 8, !tbaa !19
  %_M_manager4 = getelementptr inbounds nuw %"class.std::_Function_base", ptr %this1, i32 0, i32 1
  store ptr %6, ptr %_M_manager4, align 8, !tbaa !19
  %7 = load ptr, ptr %__x.addr, align 8, !tbaa !3
  %_M_manager5 = getelementptr inbounds nuw %"class.std::_Function_base", ptr %7, i32 0, i32 1
  store ptr null, ptr %_M_manager5, align 8, !tbaa !19
  %8 = load ptr, ptr %__x.addr, align 8, !tbaa !3
  %_M_invoker6 = getelementptr inbounds nuw %"class.std::function", ptr %8, i32 0, i32 1
  store ptr null, ptr %_M_invoker6, align 8, !tbaa !16
  br label %if.end

if.end:                                           ; preds = %if.then, %entry
  ret void
}

; Function Attrs: mustprogress nounwind uwtable
define void @_ZN8QuantLib8BiCGstabC2ESt8functionIFNS_5ArrayERKS2_EEmdS6_(ptr noundef nonnull align 8 dereferenceable(80) %this, ptr noundef %A, i64 noundef %maxIter, double noundef %relTol, ptr noundef %preConditioner) unnamed_addr #0 align 2 {
entry:
  %this.addr = alloca ptr, align 8
  %A.indirect_addr = alloca ptr, align 8
  %maxIter.addr = alloca i64, align 8
  %relTol.addr = alloca double, align 8
  %preConditioner.indirect_addr = alloca ptr, align 8
  store ptr %this, ptr %this.addr, align 8, !tbaa !3
  store ptr %A, ptr %A.indirect_addr, align 8, !tbaa !3
  store i64 %maxIter, ptr %maxIter.addr, align 8, !tbaa !7
  store double %relTol, ptr %relTol.addr, align 8, !tbaa !9
  store ptr %preConditioner, ptr %preConditioner.indirect_addr, align 8, !tbaa !3
  %this1 = load ptr, ptr %this.addr, align 8
  %A_ = getelementptr inbounds nuw %"class.QuantLib::BiCGstab", ptr %this1, i32 0, i32 0
  call void @_ZNSt8functionIFN8QuantLib5ArrayERKS1_EEC2EOS5_(ptr noundef nonnull align 8 dereferenceable(32) %A_, ptr noundef nonnull align 8 dereferenceable(32) %A) #15
  %M_ = getelementptr inbounds nuw %"class.QuantLib::BiCGstab", ptr %this1, i32 0, i32 1
  call void @_ZNSt8functionIFN8QuantLib5ArrayERKS1_EEC2EOS5_(ptr noundef nonnull align 8 dereferenceable(32) %M_, ptr noundef nonnull align 8 dereferenceable(32) %preConditioner) #15
  %maxIter_ = getelementptr inbounds nuw %"class.QuantLib::BiCGstab", ptr %this1, i32 0, i32 2
  %0 = load i64, ptr %maxIter.addr, align 8, !tbaa !7
  store i64 %0, ptr %maxIter_, align 8, !tbaa !11
  %relTol_ = getelementptr inbounds nuw %"class.QuantLib::BiCGstab", ptr %this1, i32 0, i32 3
  %1 = load double, ptr %relTol.addr, align 8, !tbaa !9
  store double %1, ptr %relTol_, align 8, !tbaa !15
  ret void
}