; Function Attrs: mustprogress nofree norecurse nosync nounwind willreturn memory(argmem: readwrite) uwtable
define void @_ZN8QuantLib8BiCGstabC2ESt8functionIFNS_5ArrayERKS2_EEmdS6_(ptr nocapture noundef nonnull writeonly align 8 dereferenceable(80) %this, ptr nocapture noundef %A, i64 noundef %maxIter, double noundef %relTol, ptr nocapture noundef %preConditioner) unnamed_addr #0 align 2 {
entry:
  %_M_invoker.i = getelementptr inbounds nuw i8, ptr %this, i64 24
  %_M_invoker2.i = getelementptr inbounds nuw i8, ptr %A, i64 24
  tail call void @llvm.memset.p0.i64(ptr noundef nonnull align 8 dereferenceable(24) %this, i8 0, i64 24, i1 false)
  %0 = load ptr, ptr %_M_invoker2.i, align 8, !tbaa !3
  store ptr %0, ptr %_M_invoker.i, align 8, !tbaa !3
  %_M_manager.i.i.i = getelementptr inbounds nuw i8, ptr %A, i64 16
  %1 = load ptr, ptr %_M_manager.i.i.i, align 8, !tbaa !9
  %tobool.not.i.i.not.i = icmp eq ptr %1, null
  br i1 %tobool.not.i.i.not.i, label %_ZNSt8functionIFN8QuantLib5ArrayERKS1_EEC2EOS5_.exit, label %if.then.i

if.then.i:                                        ; preds = %entry
  %_M_manager.i.i = getelementptr inbounds nuw i8, ptr %this, i64 16
  tail call void @llvm.memcpy.p0.p0.i64(ptr noundef nonnull align 8 dereferenceable(16) %this, ptr noundef nonnull align 8 dereferenceable(16) %A, i64 16, i1 false), !tbaa.struct !10
  %2 = load ptr, ptr %_M_manager.i.i.i, align 8, !tbaa !9
  store ptr %2, ptr %_M_manager.i.i, align 8, !tbaa !9
  tail call void @llvm.memset.p0.i64(ptr noundef nonnull align 8 dereferenceable(16) %_M_manager.i.i.i, i8 0, i64 16, i1 false)
  br label %_ZNSt8functionIFN8QuantLib5ArrayERKS1_EEC2EOS5_.exit

_ZNSt8functionIFN8QuantLib5ArrayERKS1_EEC2EOS5_.exit: ; preds = %entry, %if.then.i
  %M_ = getelementptr inbounds nuw i8, ptr %this, i64 32
  %_M_invoker.i1 = getelementptr inbounds nuw i8, ptr %this, i64 56
  %_M_invoker2.i2 = getelementptr inbounds nuw i8, ptr %preConditioner, i64 24
  tail call void @llvm.memset.p0.i64(ptr noundef nonnull align 8 dereferenceable(24) %M_, i8 0, i64 24, i1 false)
  %3 = load ptr, ptr %_M_invoker2.i2, align 8, !tbaa !3
  store ptr %3, ptr %_M_invoker.i1, align 8, !tbaa !3
  %_M_manager.i.i.i3 = getelementptr inbounds nuw i8, ptr %preConditioner, i64 16
  %4 = load ptr, ptr %_M_manager.i.i.i3, align 8, !tbaa !9
  %tobool.not.i.i.not.i4 = icmp eq ptr %4, null
  br i1 %tobool.not.i.i.not.i4, label %_ZNSt8functionIFN8QuantLib5ArrayERKS1_EEC2EOS5_.exit7, label %if.then.i5

if.then.i5:                                       ; preds = %_ZNSt8functionIFN8QuantLib5ArrayERKS1_EEC2EOS5_.exit
  %_M_manager.i.i6 = getelementptr inbounds nuw i8, ptr %this, i64 48
  tail call void @llvm.memcpy.p0.p0.i64(ptr noundef nonnull align 8 dereferenceable(16) %M_, ptr noundef nonnull align 8 dereferenceable(16) %preConditioner, i64 16, i1 false), !tbaa.struct !10
  %5 = load ptr, ptr %_M_manager.i.i.i3, align 8, !tbaa !9
  store ptr %5, ptr %_M_manager.i.i6, align 8, !tbaa !9
  tail call void @llvm.memset.p0.i64(ptr noundef nonnull align 8 dereferenceable(16) %_M_manager.i.i.i3, i8 0, i64 16, i1 false)
  br label %_ZNSt8functionIFN8QuantLib5ArrayERKS1_EEC2EOS5_.exit7

_ZNSt8functionIFN8QuantLib5ArrayERKS1_EEC2EOS5_.exit7: ; preds = %_ZNSt8functionIFN8QuantLib5ArrayERKS1_EEC2EOS5_.exit, %if.then.i5
  %maxIter_ = getelementptr inbounds nuw i8, ptr %this, i64 64
  store i64 %maxIter, ptr %maxIter_, align 8, !tbaa !12
  %relTol_ = getelementptr inbounds nuw i8, ptr %this, i64 72
  store double %relTol, ptr %relTol_, align 8, !tbaa !16
  ret void
}